target datalayout = "e-m:e-p270:32:32-p271:32:32-p272:64:64-i64:64-i128:128-f80:128-n8:16:32:64-S128"
target triple = "x86_64-pc-linux-gnu"

%struct._typeobject = type { %struct.PyVarObject, ptr, i64, i64, ptr, i64, ptr, ptr, ptr, ptr, ptr, ptr, ptr, ptr, ptr, ptr, ptr, ptr, ptr, i64, ptr, ptr, ptr, ptr, i64, ptr, ptr, ptr, ptr, ptr, ptr, ptr, ptr, ptr, i64, ptr, ptr, ptr, ptr, ptr, ptr, ptr, ptr, ptr, ptr, ptr, i32, ptr, ptr, i8, i16 }
%struct.PyVarObject = type { %struct._object, i64 }
%struct._object = type { %union.anon, ptr }
%union.anon = type { i64 }
%struct._longobject = type { %struct._object, %struct._PyLongValue }
%struct._PyLongValue = type { i64, [1 x i32] }
%struct.anon = type { i32, i32 }
%struct.PyTupleObject = type { %struct.PyVarObject, [1 x ptr] }

@.str.41 = private unnamed_addr constant [40 x i8] c"../cpython/Modules/_testcapi/heaptype.c\00", align 1
@_Py_NoneStruct = external global %struct._object, align 8
@.str.74 = private unnamed_addr constant [5 x i8] c"OOOO\00", align 1
@_Py_TrueStruct = external global %struct._longobject, align 8
@.str.75 = private unnamed_addr constant [19 x i8] c"PyType_Check(type)\00", align 1
@__PRETTY_FUNCTION__.pytype_getbasebytoken = private unnamed_addr constant [56 x i8] c"PyObject *pytype_getbasebytoken(PyObject *, PyObject *)\00", align 1
@.str.76 = private unnamed_addr constant [15 x i8] c"result == NULL\00", align 1
@.str.77 = private unnamed_addr constant [18 x i8] c"PyTuple_Check(op)\00", align 1
@.str.78 = private unnamed_addr constant [41 x i8] c"../cpython/Include/cpython/tupleobject.h\00", align 1
@__PRETTY_FUNCTION__.PyTuple_SET_ITEM = private unnamed_addr constant [58 x i8] c"void PyTuple_SET_ITEM(PyObject *, Py_ssize_t, PyObject *)\00", align 1
@.str.79 = private unnamed_addr constant [11 x i8] c"0 <= index\00", align 1
@.str.80 = private unnamed_addr constant [23 x i8] c"index < Py_SIZE(tuple)\00", align 1
@PyLong_Type = external global %struct._typeobject, align 8
@.str.81 = private unnamed_addr constant [28 x i8] c"Py_TYPE(ob) != &PyLong_Type\00", align 1
@.str.82 = private unnamed_addr constant [28 x i8] c"../cpython/Include/object.h\00", align 1
@__PRETTY_FUNCTION__.Py_SIZE = private unnamed_addr constant [31 x i8] c"Py_ssize_t Py_SIZE(PyObject *)\00", align 1
@PyBool_Type = external global %struct._typeobject, align 8
@.str.83 = private unnamed_addr constant [28 x i8] c"Py_TYPE(ob) != &PyBool_Type\00", align 1

; Function Attrs: alwaysinline nounwind uwtable
define internal i32 @_Py_IsImmortal(ptr noundef %0) #3 {
  %2 = alloca ptr, align 8
  store ptr %0, ptr %2, align 8, !tbaa !3
  %3 = load ptr, ptr %2, align 8, !tbaa !3
  %4 = getelementptr inbounds nuw %struct._object, ptr %3, i32 0, i32 0
  %5 = getelementptr inbounds nuw %struct.anon, ptr %4, i32 0, i32 0
  %6 = load i32, ptr %5, align 8, !tbaa !12
  %7 = icmp slt i32 %6, 0
  %8 = zext i1 %7 to i32
  ret i32 %8
}

; Function Attrs: alwaysinline nounwind uwtable
define internal void @Py_DECREF(ptr noundef %0) #3 {
  %2 = alloca ptr, align 8
  store ptr %0, ptr %2, align 8, !tbaa !3
  %3 = load ptr, ptr %2, align 8, !tbaa !3
  %4 = call i32 @_Py_IsImmortal(ptr noundef %3)
  %5 = icmp ne i32 %4, 0
  br i1 %5, label %6, label %7

6:                                                ; preds = %1
  br label %16

7:                                                ; preds = %1
  %8 = load ptr, ptr %2, align 8, !tbaa !3
  %9 = getelementptr inbounds nuw %struct._object, ptr %8, i32 0, i32 0
  %10 = getelementptr inbounds nuw %struct.anon, ptr %9, i32 0, i32 0
  %11 = load i32, ptr %10, align 8, !tbaa !12
  %12 = add i32 %11, -1
  store i32 %12, ptr %10, align 8, !tbaa !12
  %13 = icmp eq i32 %12, 0
  br i1 %13, label %14, label %16

14:                                               ; preds = %7
  %15 = load ptr, ptr %2, align 8, !tbaa !3
  call void @_Py_Dealloc(ptr noundef %15)
  br label %16

16:                                               ; preds = %6, %14, %7
  ret void
}

; Function Attrs: inlinehint nounwind uwtable
define internal i64 @Py_SIZE(ptr noundef %0) #4 {
  %2 = alloca ptr, align 8
  store ptr %0, ptr %2, align 8, !tbaa !3
  %3 = load ptr, ptr %2, align 8, !tbaa !3
  %4 = call ptr @_Py_TYPE(ptr noundef %3)
  %5 = icmp ne ptr %4, @PyLong_Type
  br i1 %5, label %6, label %7

6:                                                ; preds = %1
  br label %9

7:                                                ; preds = %1
  call void @__assert_fail(ptr noundef @.str.81, ptr noundef @.str.82, i32 noundef 282, ptr noundef @__PRETTY_FUNCTION__.Py_SIZE) #11
  unreachable

8:                                                ; No predecessors!
  br label %9

9:                                                ; preds = %8, %6
  %10 = load ptr, ptr %2, align 8, !tbaa !3
  %11 = call ptr @_Py_TYPE(ptr noundef %10)
  %12 = icmp ne ptr %11, @PyBool_Type
  br i1 %12, label %13, label %14

13:                                               ; preds = %9
  br label %16

14:                                               ; preds = %9
  call void @__assert_fail(ptr noundef @.str.83, ptr noundef @.str.82, i32 noundef 283, ptr noundef @__PRETTY_FUNCTION__.Py_SIZE) #11
  unreachable

15:                                               ; No predecessors!
  br label %16

16:                                               ; preds = %15, %13
  %17 = load ptr, ptr %2, align 8, !tbaa !3
  %18 = getelementptr inbounds nuw %struct.PyVarObject, ptr %17, i32 0, i32 1
  %19 = load i64, ptr %18, align 8, !tbaa !56
  ret i64 %19
}

; Function Attrs: inlinehint nounwind uwtable
define internal i32 @PyType_HasFeature(ptr noundef %0, i64 noundef %1) #4 {
  %3 = alloca ptr, align 8
  %4 = alloca i64, align 8
  %5 = alloca i64, align 8
  store ptr %0, ptr %3, align 8, !tbaa !25
  store i64 %1, ptr %4, align 8, !tbaa !53
  call void @llvm.lifetime.start.p0(i64 8, ptr %5) #9
  %6 = load ptr, ptr %3, align 8, !tbaa !25
  %7 = getelementptr inbounds nuw %struct._typeobject, ptr %6, i32 0, i32 19
  %8 = load i64, ptr %7, align 8, !tbaa !54
  store i64 %8, ptr %5, align 8, !tbaa !53
  %9 = load i64, ptr %5, align 8, !tbaa !53
  %10 = load i64, ptr %4, align 8, !tbaa !53
  %11 = and i64 %9, %10
  %12 = icmp ne i64 %11, 0
  %13 = zext i1 %12 to i32
  call void @llvm.lifetime.end.p0(i64 8, ptr %5) #9
  ret i32 %13
}

; Function Attrs: inlinehint nounwind uwtable
define internal ptr @_Py_TYPE(ptr noundef %0) #4 {
  %2 = alloca ptr, align 8
  store ptr %0, ptr %2, align 8, !tbaa !3
  %3 = load ptr, ptr %2, align 8, !tbaa !3
  %4 = getelementptr inbounds nuw %struct._object, ptr %3, i32 0, i32 1
  %5 = load ptr, ptr %4, align 8, !tbaa !55
  ret ptr %5
}

; Function Attrs: inlinehint nounwind uwtable
define internal void @Py_XDECREF(ptr noundef %0) #4 {
  %2 = alloca ptr, align 8
  store ptr %0, ptr %2, align 8, !tbaa !3
  %3 = load ptr, ptr %2, align 8, !tbaa !3
  %4 = icmp ne ptr %3, null
  br i1 %4, label %5, label %7

5:                                                ; preds = %1
  %6 = load ptr, ptr %2, align 8, !tbaa !3
  call void @Py_DECREF(ptr noundef %6)
  br label %7

7:                                                ; preds = %5, %1
  ret void
}

; Function Attrs: inlinehint nounwind uwtable
define internal void @PyTuple_SET_ITEM(ptr noundef %0, i64 noundef %1, ptr noundef %2) #4 {
  %4 = alloca ptr, align 8
  %5 = alloca i64, align 8
  %6 = alloca ptr, align 8
  %7 = alloca ptr, align 8
  store ptr %0, ptr %4, align 8, !tbaa !3
  store i64 %1, ptr %5, align 8, !tbaa !53
  store ptr %2, ptr %6, align 8, !tbaa !3
  call void @llvm.lifetime.start.p0(i64 8, ptr %7) #9
  %8 = load ptr, ptr %4, align 8, !tbaa !3
  %9 = call ptr @_Py_TYPE(ptr noundef %8)
  %10 = call i32 @PyType_HasFeature(ptr noundef %9, i64 noundef 67108864)
  %11 = icmp ne i32 %10, 0
  br i1 %11, label %12, label %13

12:                                               ; preds = %3
  br label %15

13:                                               ; preds = %3
  call void @__assert_fail(ptr noundef @.str.77, ptr noundef @.str.78, i32 noundef 32, ptr noundef @__PRETTY_FUNCTION__.PyTuple_SET_ITEM) #11
  unreachable

14:                                               ; No predecessors!
  br label %15

15:                                               ; preds = %14, %12
  %16 = load ptr, ptr %4, align 8, !tbaa !3
  store ptr %16, ptr %7, align 8, !tbaa !20
  %17 = load i64, ptr %5, align 8, !tbaa !53
  %18 = icmp sle i64 0, %17
  br i1 %18, label %19, label %20

19:                                               ; preds = %15
  br label %22

20:                                               ; preds = %15
  call void @__assert_fail(ptr noundef @.str.79, ptr noundef @.str.78, i32 noundef 33, ptr noundef @__PRETTY_FUNCTION__.PyTuple_SET_ITEM) #11
  unreachable

21:                                               ; No predecessors!
  br label %22

22:                                               ; preds = %21, %19
  %23 = load i64, ptr %5, align 8, !tbaa !53
  %24 = load ptr, ptr %7, align 8, !tbaa !20
  %25 = call i64 @Py_SIZE(ptr noundef %24)
  %26 = icmp slt i64 %23, %25
  br i1 %26, label %27, label %28

27:                                               ; preds = %22
  br label %30

28:                                               ; preds = %22
  call void @__assert_fail(ptr noundef @.str.80, ptr noundef @.str.78, i32 noundef 34, ptr noundef @__PRETTY_FUNCTION__.PyTuple_SET_ITEM) #11
  unreachable

29:                                               ; No predecessors!
  br label %30

30:                                               ; preds = %29, %27
  %31 = load ptr, ptr %6, align 8, !tbaa !3
  %32 = load ptr, ptr %7, align 8, !tbaa !20
  %33 = getelementptr inbounds nuw %struct.PyTupleObject, ptr %32, i32 0, i32 1
  %34 = load i64, ptr %5, align 8, !tbaa !53
  %35 = getelementptr [1 x ptr], ptr %33, i64 0, i64 %34
  store ptr %31, ptr %35, align 8, !tbaa !3
  call void @llvm.lifetime.end.p0(i64 8, ptr %7) #9
  ret void
}

; Function Attrs: inlinehint nounwind uwtable
define internal i32 @PyType_Check(ptr noundef %0) #4 {
  %2 = alloca ptr, align 8
  store ptr %0, ptr %2, align 8, !tbaa !3
  %3 = load ptr, ptr %2, align 8, !tbaa !3
  %4 = call ptr @_Py_TYPE(ptr noundef %3)
  %5 = call i32 @PyType_HasFeature(ptr noundef %4, i64 noundef 2147483648)
  ret i32 %5
}

; Function Attrs: nounwind uwtable
define internal ptr @pytype_getbasebytoken(ptr noundef %0, ptr noundef %1) #0 {
  %3 = alloca ptr, align 8
  %4 = alloca ptr, align 8
  %5 = alloca ptr, align 8
  %6 = alloca ptr, align 8
  %7 = alloca ptr, align 8
  %8 = alloca ptr, align 8
  %9 = alloca ptr, align 8
  %10 = alloca i32, align 4
  %11 = alloca ptr, align 8
  %12 = alloca ptr, align 8
  %13 = alloca ptr, align 8
  %14 = alloca i32, align 4
  %15 = alloca ptr, align 8
  %16 = alloca ptr, align 8
  store ptr %0, ptr %4, align 8, !tbaa !3
  store ptr %1, ptr %5, align 8, !tbaa !3
  call void @llvm.lifetime.start.p0(i64 8, ptr %6) #9
  call void @llvm.lifetime.start.p0(i64 8, ptr %7) #9
  call void @llvm.lifetime.start.p0(i64 8, ptr %8) #9
  call void @llvm.lifetime.start.p0(i64 8, ptr %9) #9
  %17 = load ptr, ptr %5, align 8, !tbaa !3
  %18 = call i32 (ptr, ptr, ...) @PyArg_ParseTuple(ptr noundef %17, ptr noundef @.str.74, ptr noundef %6, ptr noundef %7, ptr noundef %8, ptr noundef %9)
  %19 = icmp ne i32 %18, 0
  br i1 %19, label %21, label %20

20:                                               ; preds = %2
  store ptr null, ptr %3, align 8
  store i32 1, ptr %10, align 4
  br label %96

21:                                               ; preds = %2
  call void @llvm.lifetime.start.p0(i64 8, ptr %11) #9
  store ptr null, ptr %11, align 8, !tbaa !3
  %22 = load ptr, ptr %8, align 8, !tbaa !3
  %23 = icmp ne ptr %22, @_Py_TrueStruct
  br i1 %23, label %24, label %37

24:                                               ; preds = %21
  %25 = load ptr, ptr %6, align 8, !tbaa !25
  %26 = call i32 @PyType_Check(ptr noundef %25)
  %27 = icmp ne i32 %26, 0
  br i1 %27, label %28, label %29

28:                                               ; preds = %24
  br label %31

29:                                               ; preds = %24
  call void @__assert_fail(ptr noundef @.str.75, ptr noundef @.str.41, i32 noundef 484, ptr noundef @__PRETTY_FUNCTION__.pytype_getbasebytoken) #11
  unreachable

30:                                               ; No predecessors!
  br label %31

31:                                               ; preds = %30, %28
  %32 = load ptr, ptr %6, align 8, !tbaa !25
  %33 = getelementptr inbounds nuw %struct._typeobject, ptr %32, i32 0, i32 41
  %34 = load ptr, ptr %33, align 8, !tbaa !52
  store ptr %34, ptr %11, align 8, !tbaa !3
  %35 = load ptr, ptr %6, align 8, !tbaa !25
  %36 = getelementptr inbounds nuw %struct._typeobject, ptr %35, i32 0, i32 41
  store ptr null, ptr %36, align 8, !tbaa !52
  br label %37

37:                                               ; preds = %31, %21
  call void @llvm.lifetime.start.p0(i64 8, ptr %12) #9
  %38 = load ptr, ptr %7, align 8, !tbaa !3
  %39 = call ptr @PyLong_AsVoidPtr(ptr noundef %38)
  store ptr %39, ptr %12, align 8, !tbaa !20
  call void @llvm.lifetime.start.p0(i64 8, ptr %13) #9
  call void @llvm.lifetime.start.p0(i64 4, ptr %14) #9
  %40 = load ptr, ptr %9, align 8, !tbaa !3
  %41 = icmp eq ptr %40, @_Py_TrueStruct
  br i1 %41, label %42, label %46

42:                                               ; preds = %37
  %43 = load ptr, ptr %6, align 8, !tbaa !25
  %44 = load ptr, ptr %12, align 8, !tbaa !20
  %45 = call i32 @PyType_GetBaseByToken(ptr noundef %43, ptr noundef %44, ptr noundef %13)
  store i32 %45, ptr %14, align 4, !tbaa !10
  br label %50

46:                                               ; preds = %37
  store ptr null, ptr %13, align 8, !tbaa !3
  %47 = load ptr, ptr %6, align 8, !tbaa !25
  %48 = load ptr, ptr %12, align 8, !tbaa !20
  %49 = call i32 @PyType_GetBaseByToken(ptr noundef %47, ptr noundef %48, ptr noundef null)
  store i32 %49, ptr %14, align 4, !tbaa !10
  br label %50

50:                                               ; preds = %46, %42
  %51 = load ptr, ptr %8, align 8, !tbaa !3
  %52 = icmp ne ptr %51, @_Py_TrueStruct
  br i1 %52, label %53, label %57

53:                                               ; preds = %50
  %54 = load ptr, ptr %11, align 8, !tbaa !3
  %55 = load ptr, ptr %6, align 8, !tbaa !25
  %56 = getelementptr inbounds nuw %struct._typeobject, ptr %55, i32 0, i32 41
  store ptr %54, ptr %56, align 8, !tbaa !52
  br label %57

57:                                               ; preds = %53, %50
  %58 = load i32, ptr %14, align 4, !tbaa !10
  %59 = icmp slt i32 %58, 0
  br i1 %59, label %60, label %67

60:                                               ; preds = %57
  %61 = load ptr, ptr %13, align 8, !tbaa !3
  %62 = icmp eq ptr %61, null
  br i1 %62, label %63, label %64

63:                                               ; preds = %60
  br label %66

64:                                               ; preds = %60
  call void @__assert_fail(ptr noundef @.str.76, ptr noundef @.str.41, i32 noundef 504, ptr noundef @__PRETTY_FUNCTION__.pytype_getbasebytoken) #11
  unreachable

65:                                               ; No predecessors!
  br label %66

66:                                               ; preds = %65, %63
  store ptr null, ptr %3, align 8
  store i32 1, ptr %10, align 4
  br label %95

67:                                               ; preds = %57
  call void @llvm.lifetime.start.p0(i64 8, ptr %15) #9
  %68 = load i32, ptr %14, align 4, !tbaa !10
  %69 = sext i32 %68 to i64
  %70 = call ptr @PyLong_FromLong(i64 noundef %69)
  store ptr %70, ptr %15, align 8, !tbaa !3
  %71 = load ptr, ptr %15, align 8, !tbaa !3
  %72 = icmp eq ptr %71, null
  br i1 %72, label %73, label %74

73:                                               ; preds = %67
  br label %91

74:                                               ; preds = %67
  %75 = call ptr @PyTuple_New(i64 noundef 2)
  store ptr %75, ptr %16, align 8, !tbaa !3
  %76 = load ptr, ptr %16, align 8, !tbaa !3
  %77 = icmp eq ptr %76, null
  br i1 %77, label %78, label %79

78:                                               ; preds = %74
  br label %91

79:                                               ; preds = %74
  %80 = load ptr, ptr %16, align 8, !tbaa !3
  %81 = load ptr, ptr %15, align 8, !tbaa !3
  call void @PyTuple_SET_ITEM(ptr noundef %80, i64 noundef 0, ptr noundef %81)
  %82 = load ptr, ptr %16, align 8, !tbaa !3
  %83 = load ptr, ptr %13, align 8, !tbaa !3
  %84 = icmp ne ptr %83, null
  br i1 %84, label %85, label %87

85:                                               ; preds = %79
  %86 = load ptr, ptr %13, align 8, !tbaa !3
  br label %88

87:                                               ; preds = %79
  br label %88

88:                                               ; preds = %87, %85
  %89 = phi ptr [ %86, %85 ], [ @_Py_NoneStruct, %87 ]
  call void @PyTuple_SET_ITEM(ptr noundef %82, i64 noundef 1, ptr noundef %89)
  %90 = load ptr, ptr %16, align 8, !tbaa !3
  store ptr %90, ptr %3, align 8
  store i32 1, ptr %10, align 4
  br label %94

91:                                               ; preds = %78, %73
  %92 = load ptr, ptr %15, align 8, !tbaa !3
  call void @Py_XDECREF(ptr noundef %92)
  %93 = load ptr, ptr %13, align 8, !tbaa !3
  call void @Py_XDECREF(ptr noundef %93)
  store ptr null, ptr %3, align 8
  store i32 1, ptr %10, align 4
  br label %94

94:                                               ; preds = %91, %88
  call void @llvm.lifetime.end.p0(i64 8, ptr %15) #9
  br label %95

95:                                               ; preds = %94, %66
  call void @llvm.lifetime.end.p0(i64 4, ptr %14) #9
  call void @llvm.lifetime.end.p0(i64 8, ptr %13) #9
  call void @llvm.lifetime.end.p0(i64 8, ptr %12) #9
  call void @llvm.lifetime.end.p0(i64 8, ptr %11) #9
  br label %96

96:                                               ; preds = %95, %20
  call void @llvm.lifetime.end.p0(i64 8, ptr %9) #9
  call void @llvm.lifetime.end.p0(i64 8, ptr %8) #9
  call void @llvm.lifetime.end.p0(i64 8, ptr %7) #9
  call void @llvm.lifetime.end.p0(i64 8, ptr %6) #9
  %97 = load ptr, ptr %3, align 8
  ret ptr %97
}