; Function Attrs: nounwind uwtable
define internal ptr @pytype_getbasebytoken(ptr readnone captures(none) %0, ptr noundef %1) #0 {
  %3 = alloca ptr, align 8
  %4 = alloca ptr, align 8
  %5 = alloca ptr, align 8
  %6 = alloca ptr, align 8
  %7 = alloca ptr, align 8
  call void @llvm.lifetime.start.p0(i64 8, ptr nonnull %3) #8
  call void @llvm.lifetime.start.p0(i64 8, ptr nonnull %4) #8
  call void @llvm.lifetime.start.p0(i64 8, ptr nonnull %5) #8
  call void @llvm.lifetime.start.p0(i64 8, ptr nonnull %6) #8
  %8 = call i32 (ptr, ptr, ...) @PyArg_ParseTuple(ptr noundef %1, ptr noundef nonnull @.str.74, ptr noundef nonnull %3, ptr noundef nonnull %4, ptr noundef nonnull %5, ptr noundef nonnull %6) #8
  %.not = icmp eq i32 %8, 0
  br i1 %.not, label %76, label %9

9:                                                ; preds = %2
  %10 = load ptr, ptr %5, align 8, !tbaa !23
  %.not18 = icmp eq ptr %10, @_Py_TrueStruct
  br i1 %.not18, label %20, label %11

11:                                               ; preds = %9
  %12 = load ptr, ptr %3, align 8, !tbaa !47
  %13 = getelementptr i8, ptr %12, i64 8
  %.val = load ptr, ptr %13, align 8, !tbaa !9
  %14 = getelementptr i8, ptr %.val, i64 168
  %.val.val = load i64, ptr %14, align 8, !tbaa !12
  %15 = and i64 %.val.val, 2147483648
  %.not34 = icmp eq i64 %15, 0
  br i1 %.not34, label %16, label %17

16:                                               ; preds = %11
  call void @__assert_fail(ptr noundef nonnull @.str.75, ptr noundef nonnull @.str.41, i32 noundef 484, ptr noundef nonnull @__PRETTY_FUNCTION__.pytype_getbasebytoken) #10
  unreachable

17:                                               ; preds = %11
  %18 = getelementptr inbounds nuw i8, ptr %12, i64 344
  %19 = load ptr, ptr %18, align 8, !tbaa !48
  store ptr null, ptr %18, align 8, !tbaa !48
  br label %20

20:                                               ; preds = %17, %9
  %.014 = phi ptr [ %19, %17 ], [ null, %9 ]
  %21 = load ptr, ptr %4, align 8, !tbaa !23
  %22 = call ptr @PyLong_AsVoidPtr(ptr noundef %21) #8
  call void @llvm.lifetime.start.p0(i64 8, ptr nonnull %7) #8
  %23 = load ptr, ptr %6, align 8, !tbaa !23
  %24 = icmp eq ptr %23, @_Py_TrueStruct
  br i1 %24, label %26, label %25

25:                                               ; preds = %20
  store ptr null, ptr %7, align 8, !tbaa !23
  br label %26

26:                                               ; preds = %20, %25
  %.sink36 = phi ptr [ null, %25 ], [ %7, %20 ]
  %27 = load ptr, ptr %3, align 8, !tbaa !47
  %28 = call i32 @PyType_GetBaseByToken(ptr noundef %27, ptr noundef %22, ptr noundef %.sink36) #8
  %29 = load ptr, ptr %5, align 8, !tbaa !23
  %.not20 = icmp eq ptr %29, @_Py_TrueStruct
  br i1 %.not20, label %33, label %30

30:                                               ; preds = %26
  %31 = load ptr, ptr %3, align 8, !tbaa !47
  %32 = getelementptr inbounds nuw i8, ptr %31, i64 344
  store ptr %.014, ptr %32, align 8, !tbaa !48
  br label %33

33:                                               ; preds = %30, %26
  %34 = icmp slt i32 %28, 0
  br i1 %34, label %35, label %39

35:                                               ; preds = %33
  %36 = load ptr, ptr %7, align 8, !tbaa !23
  %37 = icmp eq ptr %36, null
  br i1 %37, label %Py_XDECREF.exit33, label %38

38:                                               ; preds = %35
  call void @__assert_fail(ptr noundef nonnull @.str.76, ptr noundef nonnull @.str.41, i32 noundef 504, ptr noundef nonnull @__PRETTY_FUNCTION__.pytype_getbasebytoken) #10
  unreachable

39:                                               ; preds = %33
  %40 = zext nneg i32 %28 to i64
  %41 = call ptr @PyLong_FromLong(i64 noundef %40) #8
  %42 = icmp eq ptr %41, null
  br i1 %42, label %.split, label %43

43:                                               ; preds = %39
  %44 = call ptr @PyTuple_New(i64 noundef 2) #8
  %45 = icmp eq ptr %44, null
  br i1 %45, label %.split15, label %51

.split15:                                         ; preds = %43
  %46 = load i32, ptr %41, align 8, !tbaa !8
  %.not.i.i = icmp sgt i32 %46, -1
  br i1 %.not.i.i, label %47, label %.split

47:                                               ; preds = %.split15
  %48 = add nsw i32 %46, -1
  store i32 %48, ptr %41, align 8, !tbaa !8
  %49 = icmp eq i32 %48, 0
  br i1 %49, label %50, label %.split

50:                                               ; preds = %47
  call void @_Py_Dealloc(ptr noundef nonnull %41) #8
  br label %.split

51:                                               ; preds = %43
  %52 = getelementptr i8, ptr %44, i64 8
  %.val.i = load ptr, ptr %52, align 8, !tbaa !9
  %53 = getelementptr i8, ptr %.val.i, i64 168
  %.val7.i = load i64, ptr %53, align 8, !tbaa !12
  %54 = and i64 %.val7.i, 67108864
  %.not.i22 = icmp eq i64 %54, 0
  br i1 %.not.i22, label %55, label %56

55:                                               ; preds = %51
  call void @__assert_fail(ptr noundef nonnull @.str.77, ptr noundef nonnull @.str.78, i32 noundef 32, ptr noundef nonnull @__PRETTY_FUNCTION__.PyTuple_SET_ITEM) #10
  unreachable

56:                                               ; preds = %51
  %.not.i.i23 = icmp eq ptr %.val.i, @PyLong_Type
  br i1 %.not.i.i23, label %57, label %58

57:                                               ; preds = %56
  call void @__assert_fail(ptr noundef nonnull @.str.81, ptr noundef nonnull @.str.82, i32 noundef 282, ptr noundef nonnull @__PRETTY_FUNCTION__.Py_SIZE) #10
  unreachable

58:                                               ; preds = %56
  %.not3.i.i = icmp eq ptr %.val.i, @PyBool_Type
  br i1 %.not3.i.i, label %59, label %Py_SIZE.exit.i

59:                                               ; preds = %58
  call void @__assert_fail(ptr noundef nonnull @.str.83, ptr noundef nonnull @.str.82, i32 noundef 283, ptr noundef nonnull @__PRETTY_FUNCTION__.Py_SIZE) #10
  unreachable

Py_SIZE.exit.i:                                   ; preds = %58
  %60 = getelementptr inbounds nuw i8, ptr %44, i64 16
  %61 = load i64, ptr %60, align 8, !tbaa !49
  %62 = icmp sgt i64 %61, 0
  br i1 %62, label %Py_SIZE.exit.i29, label %63

63:                                               ; preds = %Py_SIZE.exit.i
  call void @__assert_fail(ptr noundef nonnull @.str.80, ptr noundef nonnull @.str.78, i32 noundef 34, ptr noundef nonnull @__PRETTY_FUNCTION__.PyTuple_SET_ITEM) #10
  unreachable

Py_SIZE.exit.i29:                                 ; preds = %Py_SIZE.exit.i
  %64 = getelementptr inbounds nuw i8, ptr %44, i64 24
  store ptr %41, ptr %64, align 8, !tbaa !23
  %.not35 = icmp eq i64 %61, 1
  br i1 %.not35, label %65, label %PyTuple_SET_ITEM.exit30

65:                                               ; preds = %Py_SIZE.exit.i29
  call void @__assert_fail(ptr noundef nonnull @.str.80, ptr noundef nonnull @.str.78, i32 noundef 34, ptr noundef nonnull @__PRETTY_FUNCTION__.PyTuple_SET_ITEM) #10
  unreachable

PyTuple_SET_ITEM.exit30:                          ; preds = %Py_SIZE.exit.i29
  %66 = load ptr, ptr %7, align 8, !tbaa !23
  %.not21 = icmp eq ptr %66, null
  %67 = select i1 %.not21, ptr @_Py_NoneStruct, ptr %66
  %68 = getelementptr i8, ptr %44, i64 32
  store ptr %67, ptr %68, align 8, !tbaa !23
  br label %Py_XDECREF.exit33

.split:                                           ; preds = %50, %47, %.split15, %39
  %69 = load ptr, ptr %7, align 8, !tbaa !23
  %.not.i31 = icmp eq ptr %69, null
  br i1 %.not.i31, label %Py_XDECREF.exit33, label %70

70:                                               ; preds = %.split
  %71 = load i32, ptr %69, align 8, !tbaa !8
  %.not.i.i32 = icmp sgt i32 %71, -1
  br i1 %.not.i.i32, label %72, label %Py_XDECREF.exit33

72:                                               ; preds = %70
  %73 = add nsw i32 %71, -1
  store i32 %73, ptr %69, align 8, !tbaa !8
  %74 = icmp eq i32 %73, 0
  br i1 %74, label %75, label %Py_XDECREF.exit33

75:                                               ; preds = %72
  call void @_Py_Dealloc(ptr noundef nonnull %69) #8
  br label %Py_XDECREF.exit33

Py_XDECREF.exit33:                                ; preds = %75, %72, %70, %.split, %PyTuple_SET_ITEM.exit30, %35
  %.1 = phi ptr [ null, %35 ], [ %44, %PyTuple_SET_ITEM.exit30 ], [ null, %.split ], [ null, %70 ], [ null, %72 ], [ null, %75 ]
  call void @llvm.lifetime.end.p0(i64 8, ptr nonnull %7) #8
  br label %76

76:                                               ; preds = %2, %Py_XDECREF.exit33
  %.0 = phi ptr [ %.1, %Py_XDECREF.exit33 ], [ null, %2 ]
  call void @llvm.lifetime.end.p0(i64 8, ptr nonnull %6) #8
  call void @llvm.lifetime.end.p0(i64 8, ptr nonnull %5) #8
  call void @llvm.lifetime.end.p0(i64 8, ptr nonnull %4) #8
  call void @llvm.lifetime.end.p0(i64 8, ptr nonnull %3) #8
  ret ptr %.0
}